target datalayout = "e-m:e-p270:32:32-p271:32:32-p272:64:64-i64:64-i128:128-f80:128-n8:16:32:64-S128"
target triple = "x86_64-pc-linux-gnu"

%struct.IndexScanState = type { %struct.ScanState, ptr, ptr, ptr, i32, ptr, i32, ptr, i32, i8, ptr, ptr, ptr, ptr, i8, ptr, ptr, ptr, ptr, ptr, i64 }
%struct.ScanState = type { %struct.PlanState, ptr, ptr, ptr }
%struct.PlanState = type { i32, ptr, ptr, ptr, ptr, ptr, ptr, ptr, ptr, ptr, ptr, ptr, ptr, ptr, ptr, ptr, ptr, ptr, i8, ptr, ptr, ptr, ptr, ptr, i8, i8, i8, i8, i8, i8, i8, i8 }
%struct.EState = type { i32, i32, ptr, ptr, ptr, i32, ptr, ptr, ptr, ptr, ptr, ptr, ptr, ptr, ptr, ptr, i32, ptr, ptr, ptr, ptr, ptr, ptr, ptr, ptr, ptr, ptr, i64, i64, i32, i32, i8, ptr, ptr, ptr, ptr, ptr, i8, i32, i32, ptr, i32, ptr, ptr, ptr, ptr }
%struct.Scan = type { %struct.Plan, i32 }
%struct.Plan = type { i32, i32, double, double, double, i32, i8, i8, i8, i32, ptr, ptr, ptr, ptr, ptr, ptr, ptr }
%struct.EPQState = type { ptr, i32, ptr, ptr, ptr, ptr, ptr, ptr, ptr, ptr, ptr, ptr, ptr }

@.str = private unnamed_addr constant [48 x i8] c"unexpected ExecIndexMarkPos call in EPQ recheck\00", align 1
@.str.1 = private unnamed_addr constant [16 x i8] c"nodeIndexscan.c\00", align 1
@__func__.ExecIndexMarkPos = private unnamed_addr constant [17 x i8] c"ExecIndexMarkPos\00", align 1

; Function Attrs: nounwind uwtable
define dso_local void @ExecIndexMarkPos(ptr noundef %0) #0 {
  %2 = alloca ptr, align 8
  %3 = alloca ptr, align 8
  %4 = alloca ptr, align 8
  %5 = alloca i32, align 4
  %6 = alloca i32, align 4
  store ptr %0, ptr %2, align 8
  call void @llvm.lifetime.start.p0(i64 8, ptr %3) #7
  %7 = load ptr, ptr %2, align 8
  %8 = getelementptr inbounds nuw %struct.IndexScanState, ptr %7, i32 0, i32 0
  %9 = getelementptr inbounds nuw %struct.ScanState, ptr %8, i32 0, i32 0
  %10 = getelementptr inbounds nuw %struct.PlanState, ptr %9, i32 0, i32 2
  %11 = load ptr, ptr %10, align 8
  store ptr %11, ptr %3, align 8
  call void @llvm.lifetime.start.p0(i64 8, ptr %4) #7
  %12 = load ptr, ptr %3, align 8
  %13 = getelementptr inbounds nuw %struct.EState, ptr %12, i32 0, i32 36
  %14 = load ptr, ptr %13, align 8
  store ptr %14, ptr %4, align 8
  %15 = load ptr, ptr %4, align 8
  %16 = icmp ne ptr %15, null
  br i1 %16, label %17, label %70

17:                                               ; preds = %1
  call void @llvm.lifetime.start.p0(i64 4, ptr %5) #7
  %18 = load ptr, ptr %2, align 8
  %19 = getelementptr inbounds nuw %struct.IndexScanState, ptr %18, i32 0, i32 0
  %20 = getelementptr inbounds nuw %struct.ScanState, ptr %19, i32 0, i32 0
  %21 = getelementptr inbounds nuw %struct.PlanState, ptr %20, i32 0, i32 1
  %22 = load ptr, ptr %21, align 8
  %23 = getelementptr inbounds nuw %struct.Scan, ptr %22, i32 0, i32 1
  %24 = load i32, ptr %23, align 8
  store i32 %24, ptr %5, align 4
  %25 = load ptr, ptr %4, align 8
  %26 = getelementptr inbounds nuw %struct.EPQState, ptr %25, i32 0, i32 4
  %27 = load ptr, ptr %26, align 8
  %28 = load i32, ptr %5, align 4
  %29 = sub i32 %28, 1
  %30 = zext i32 %29 to i64
  %31 = getelementptr inbounds nuw ptr, ptr %27, i64 %30
  %32 = load ptr, ptr %31, align 8
  %33 = icmp ne ptr %32, null
  br i1 %33, label %44, label %34

34:                                               ; preds = %17
  %35 = load ptr, ptr %4, align 8
  %36 = getelementptr inbounds nuw %struct.EPQState, ptr %35, i32 0, i32 9
  %37 = load ptr, ptr %36, align 8
  %38 = load i32, ptr %5, align 4
  %39 = sub i32 %38, 1
  %40 = zext i32 %39 to i64
  %41 = getelementptr inbounds nuw ptr, ptr %37, i64 %40
  %42 = load ptr, ptr %41, align 8
  %43 = icmp ne ptr %42, null
  br i1 %43, label %44, label %66

44:                                               ; preds = %34, %17
  %45 = load ptr, ptr %4, align 8
  %46 = getelementptr inbounds nuw %struct.EPQState, ptr %45, i32 0, i32 10
  %47 = load ptr, ptr %46, align 8
  %48 = load i32, ptr %5, align 4
  %49 = sub i32 %48, 1
  %50 = zext i32 %49 to i64
  %51 = getelementptr inbounds nuw i8, ptr %47, i64 %50
  %52 = load i8, ptr %51, align 1, !range !6, !noundef !7
  %53 = trunc i8 %52 to i1
  br i1 %53, label %65, label %54

54:                                               ; preds = %44
  br label %55

55:                                               ; preds = %54
  br i1 true, label %56, label %58

56:                                               ; preds = %55
  %57 = call zeroext i1 @errstart_cold(i32 noundef 21, ptr noundef null) #8
  br i1 %57, label %60, label %62

58:                                               ; preds = %55
  %59 = call zeroext i1 @errstart(i32 noundef 21, ptr noundef null)
  br i1 %59, label %60, label %62

60:                                               ; preds = %58, %56
  %61 = call i32 (ptr, ...) @errmsg_internal(ptr noundef @.str)
  call void @errfinish(ptr noundef @.str.1, i32 noundef 837, ptr noundef @__func__.ExecIndexMarkPos)
  br label %62

62:                                               ; preds = %60, %58, %56
  unreachable

63:                                               ; No predecessors!
  br label %64

64:                                               ; preds = %63
  br label %65

65:                                               ; preds = %64, %44
  store i32 1, ptr %6, align 4
  br label %67

66:                                               ; preds = %34
  store i32 0, ptr %6, align 4
  br label %67

67:                                               ; preds = %66, %65
  call void @llvm.lifetime.end.p0(i64 4, ptr %5) #7
  %68 = load i32, ptr %6, align 4
  switch i32 %68, label %74 [
    i32 0, label %69
  ]

69:                                               ; preds = %67
  br label %70

70:                                               ; preds = %69, %1
  %71 = load ptr, ptr %2, align 8
  %72 = getelementptr inbounds nuw %struct.IndexScanState, ptr %71, i32 0, i32 12
  %73 = load ptr, ptr %72, align 8
  call void @index_markpos(ptr noundef %73)
  store i32 0, ptr %6, align 4
  br label %74

74:                                               ; preds = %70, %67
  call void @llvm.lifetime.end.p0(i64 8, ptr %4) #7
  call void @llvm.lifetime.end.p0(i64 8, ptr %3) #7
  %75 = load i32, ptr %6, align 4
  switch i32 %75, label %77 [
    i32 0, label %76
    i32 1, label %76
  ]

76:                                               ; preds = %74, %74
  ret void

77:                                               ; preds = %74
  unreachable
}